; Function Attrs: mustprogress uwtable
define hidden void @_ZN5arith6solver13ensure_columnEi(ptr noundef nonnull align 8 dereferenceable(1144) %this, i32 noundef %v) local_unnamed_addr #3 align 2 {
entry:
  %m_solver.i = getelementptr inbounds i8, ptr %this, i64 592
  %0 = load ptr, ptr %m_solver.i, align 8
  %call2 = tail call noundef zeroext i1 @_ZNK2lp10lar_solver16external_is_usedEj(ptr noundef nonnull align 8 dereferenceable(1888) %0, i32 noundef %v)
  br i1 %call2, label %if.end, label %if.then

if.then:                                          ; preds = %entry
  %call3 = tail call noundef i32 @_ZN5arith6solver33register_theory_var_in_lar_solverEi(ptr noundef nonnull align 8 dereferenceable(1144) %this, i32 noundef %v)
  br label %if.end

if.end:                                           ; preds = %if.then, %entry
  ret void
}